target datalayout = "e-m:e-p270:32:32-p271:32:32-p272:64:64-i64:64-i128:128-f80:128-n8:16:32:64-S128"
target triple = "x86_64-pc-linux-gnu"

%struct.parser_st_table = type { i8, i8, i8, i32, ptr, i64, ptr, i64, i64, ptr }
%struct.st_features = type { i8, i8, i8, i64 }

; Function Attrs: inlinehint nounwind sspstrong uwtable
define internal i32 @nlz_int64(i64 noundef %0) #3 {
  %2 = alloca i32, align 4
  %3 = alloca i64, align 8
  store i64 %0, ptr %3, align 8, !tbaa !14
  %4 = load i64, ptr %3, align 8, !tbaa !14
  %5 = icmp eq i64 %4, 0
  br i1 %5, label %6, label %7

6:                                                ; preds = %1
  store i32 64, ptr %2, align 4
  br label %11

7:                                                ; preds = %1
  %8 = load i64, ptr %3, align 8, !tbaa !14
  %9 = call i64 @llvm.ctlz.i64(i64 %8, i1 true)
  %10 = trunc i64 %9 to i32
  store i32 %10, ptr %2, align 4
  br label %11

11:                                               ; preds = %7, %6
  %12 = load i32, ptr %2, align 4
  ret i32 %12
}

; Function Attrs: alwaysinline nounwind
define internal ptr @memset.inline(ptr nonnull %0, i32 %1, i64 %2) #11 {
  %4 = alloca ptr, align 8
  %5 = alloca i32, align 4
  %6 = alloca i64, align 8
  store ptr %0, ptr %4, align 8, !tbaa !49
  store i32 %1, ptr %5, align 4, !tbaa !16
  store i64 %2, ptr %6, align 8, !tbaa !14
  %7 = load ptr, ptr %4, align 8, !tbaa !49
  %8 = load i32, ptr %5, align 4, !tbaa !16
  %9 = load i64, ptr %6, align 8, !tbaa !14
  %10 = load ptr, ptr %4, align 8, !tbaa !49
  %11 = call i64 @llvm.objectsize.i64.p0(ptr %10, i1 false, i1 true, i1 false)
  %12 = call ptr @__memset_chk(ptr noundef %7, i32 noundef %8, i64 noundef %9, i64 noundef %11) #14
  ret ptr %12
}

; Function Attrs: inlinehint nounwind sspstrong uwtable
define internal i32 @nlz_long(i64 noundef %0) #3 {
  %2 = alloca i64, align 8
  store i64 %0, ptr %2, align 8, !tbaa !14
  %3 = load i64, ptr %2, align 8, !tbaa !14
  %4 = call i32 @nlz_int64(i64 noundef %3)
  ret i32 %4
}

; Function Attrs: nounwind sspstrong uwtable
define internal void @initialize_bins(ptr noundef %0) #0 {
  %2 = alloca ptr, align 8
  store ptr %0, ptr %2, align 8, !tbaa !7
  %3 = load ptr, ptr %2, align 8, !tbaa !7
  %4 = getelementptr inbounds nuw %struct.parser_st_table, ptr %3, i32 0, i32 6
  %5 = load ptr, ptr %4, align 8, !tbaa !28
  %6 = load ptr, ptr %2, align 8, !tbaa !7
  %7 = call i64 @bins_size(ptr noundef %6)
  %8 = call ptr @memset.inline(ptr noundef %5, i32 noundef 0, i64 noundef %7) #14
  ret void
}

; Function Attrs: inlinehint nounwind sspstrong uwtable
define internal i32 @nlz_intptr(i64 noundef %0) #3 {
  %2 = alloca i64, align 8
  store i64 %0, ptr %2, align 8, !tbaa !14
  %3 = load i64, ptr %2, align 8, !tbaa !14
  %4 = call i32 @nlz_long(i64 noundef %3)
  ret i32 %4
}

; Function Attrs: nounwind sspstrong uwtable
define internal void @make_tab_empty(ptr noundef %0) #0 {
  %2 = alloca ptr, align 8
  store ptr %0, ptr %2, align 8, !tbaa !7
  %3 = load ptr, ptr %2, align 8, !tbaa !7
  %4 = getelementptr inbounds nuw %struct.parser_st_table, ptr %3, i32 0, i32 5
  store i64 0, ptr %4, align 8, !tbaa !32
  %5 = load ptr, ptr %2, align 8, !tbaa !7
  %6 = getelementptr inbounds nuw %struct.parser_st_table, ptr %5, i32 0, i32 8
  store i64 0, ptr %6, align 8, !tbaa !33
  %7 = load ptr, ptr %2, align 8, !tbaa !7
  %8 = getelementptr inbounds nuw %struct.parser_st_table, ptr %7, i32 0, i32 7
  store i64 0, ptr %8, align 8, !tbaa !34
  %9 = load ptr, ptr %2, align 8, !tbaa !7
  %10 = getelementptr inbounds nuw %struct.parser_st_table, ptr %9, i32 0, i32 6
  %11 = load ptr, ptr %10, align 8, !tbaa !28
  %12 = icmp ne ptr %11, null
  br i1 %12, label %13, label %15

13:                                               ; preds = %1
  %14 = load ptr, ptr %2, align 8, !tbaa !7
  call void @initialize_bins(ptr noundef %14)
  br label %15

15:                                               ; preds = %13, %1
  ret void
}

; Function Attrs: nounwind sspstrong uwtable
define dso_local void @rb_parser_st_free_table(ptr noundef %0) #0 {
  %2 = alloca ptr, align 8
  store ptr %0, ptr %2, align 8, !tbaa !7
  %3 = load ptr, ptr %2, align 8, !tbaa !7
  %4 = getelementptr inbounds nuw %struct.parser_st_table, ptr %3, i32 0, i32 6
  %5 = load ptr, ptr %4, align 8, !tbaa !28
  call void @free(ptr noundef %5) #14
  %6 = load ptr, ptr %2, align 8, !tbaa !7
  %7 = getelementptr inbounds nuw %struct.parser_st_table, ptr %6, i32 0, i32 9
  %8 = load ptr, ptr %7, align 8, !tbaa !29
  call void @free(ptr noundef %8) #14
  %9 = load ptr, ptr %2, align 8, !tbaa !7
  call void @free(ptr noundef %9) #14
  ret void
}

; Function Attrs: inlinehint nounwind sspstrong uwtable
define internal i64 @get_allocated_entries(ptr noundef %0) #3 {
  %2 = alloca ptr, align 8
  store ptr %0, ptr %2, align 8, !tbaa !7
  %3 = load ptr, ptr %2, align 8, !tbaa !7
  %4 = getelementptr inbounds nuw %struct.parser_st_table, ptr %3, i32 0, i32 0
  %5 = load i8, ptr %4, align 8, !tbaa !22
  %6 = zext i8 %5 to i32
  %7 = zext i32 %6 to i64
  %8 = shl i64 1, %7
  ret i64 %8
}

; Function Attrs: inlinehint nounwind sspstrong uwtable
define internal i64 @bins_size(ptr noundef %0) #3 {
  %2 = alloca ptr, align 8
  store ptr %0, ptr %2, align 8, !tbaa !7
  %3 = load ptr, ptr %2, align 8, !tbaa !7
  %4 = getelementptr inbounds nuw %struct.parser_st_table, ptr %3, i32 0, i32 0
  %5 = load i8, ptr %4, align 8, !tbaa !22
  %6 = zext i8 %5 to i64
  %7 = getelementptr [63 x %struct.st_features], ptr @features, i64 0, i64 %6
  %8 = getelementptr inbounds nuw %struct.st_features, ptr %7, i32 0, i32 3
  %9 = load i64, ptr %8, align 8, !tbaa !31
  %10 = mul i64 %9, 8
  ret i64 %10
}

; Function Attrs: nounwind sspstrong uwtable
define internal i32 @get_power2(i64 noundef %0) #0 {
  %2 = alloca i32, align 4
  %3 = alloca i64, align 8
  %4 = alloca i32, align 4
  %5 = alloca i32, align 4
  store i64 %0, ptr %3, align 8, !tbaa !14
  call void @llvm.lifetime.start.p0(i64 4, ptr %4) #14
  %6 = load i64, ptr %3, align 8, !tbaa !14
  %7 = call i32 @nlz_intptr(i64 noundef %6)
  %8 = sub i32 64, %7
  store i32 %8, ptr %4, align 4, !tbaa !16
  %9 = load i32, ptr %4, align 4, !tbaa !16
  %10 = icmp ule i32 %9, 62
  br i1 %10, label %11, label %19

11:                                               ; preds = %1
  %12 = load i32, ptr %4, align 4, !tbaa !16
  %13 = icmp ult i32 %12, 2
  br i1 %13, label %14, label %15

14:                                               ; preds = %11
  br label %17

15:                                               ; preds = %11
  %16 = load i32, ptr %4, align 4, !tbaa !16
  br label %17

17:                                               ; preds = %15, %14
  %18 = phi i32 [ 2, %14 ], [ %16, %15 ]
  store i32 %18, ptr %2, align 4
  store i32 1, ptr %5, align 4
  br label %20

19:                                               ; preds = %1
  store i32 -1, ptr %2, align 4
  store i32 1, ptr %5, align 4
  br label %20

20:                                               ; preds = %19, %17
  call void @llvm.lifetime.end.p0(i64 4, ptr %4) #14
  %21 = load i32, ptr %2, align 4
  ret i32 %21
}

; Function Attrs: nounwind sspstrong uwtable
define dso_local ptr @rb_parser_st_init_existing_table_with_size(ptr noundef %0, ptr noundef %1, i64 noundef %2) #0 {
  %4 = alloca ptr, align 8
  %5 = alloca ptr, align 8
  %6 = alloca ptr, align 8
  %7 = alloca i64, align 8
  %8 = alloca i32, align 4
  %9 = alloca i32, align 4
  store ptr %0, ptr %5, align 8, !tbaa !7
  store ptr %1, ptr %6, align 8, !tbaa !12
  store i64 %2, ptr %7, align 8, !tbaa !14
  call void @llvm.lifetime.start.p0(i64 4, ptr %8) #14
  %10 = load i64, ptr %7, align 8, !tbaa !14
  %11 = call i32 @get_power2(i64 noundef %10)
  store i32 %11, ptr %8, align 4, !tbaa !16
  %12 = load i32, ptr %8, align 4, !tbaa !16
  %13 = icmp slt i32 %12, 0
  br i1 %13, label %14, label %15

14:                                               ; preds = %3
  store ptr null, ptr %4, align 8
  store i32 1, ptr %9, align 4
  br label %73

15:                                               ; preds = %3
  %16 = load ptr, ptr %6, align 8, !tbaa !12
  %17 = load ptr, ptr %5, align 8, !tbaa !7
  %18 = getelementptr inbounds nuw %struct.parser_st_table, ptr %17, i32 0, i32 4
  store ptr %16, ptr %18, align 8, !tbaa !18
  %19 = load i32, ptr %8, align 4, !tbaa !16
  %20 = trunc i32 %19 to i8
  %21 = load ptr, ptr %5, align 8, !tbaa !7
  %22 = getelementptr inbounds nuw %struct.parser_st_table, ptr %21, i32 0, i32 0
  store i8 %20, ptr %22, align 8, !tbaa !22
  %23 = load i32, ptr %8, align 4, !tbaa !16
  %24 = sext i32 %23 to i64
  %25 = getelementptr [63 x %struct.st_features], ptr @features, i64 0, i64 %24
  %26 = getelementptr inbounds nuw %struct.st_features, ptr %25, i32 0, i32 1
  %27 = load i8, ptr %26, align 1, !tbaa !23
  %28 = load ptr, ptr %5, align 8, !tbaa !7
  %29 = getelementptr inbounds nuw %struct.parser_st_table, ptr %28, i32 0, i32 1
  store i8 %27, ptr %29, align 1, !tbaa !25
  %30 = load i32, ptr %8, align 4, !tbaa !16
  %31 = sext i32 %30 to i64
  %32 = getelementptr [63 x %struct.st_features], ptr @features, i64 0, i64 %31
  %33 = getelementptr inbounds nuw %struct.st_features, ptr %32, i32 0, i32 2
  %34 = load i8, ptr %33, align 2, !tbaa !26
  %35 = load ptr, ptr %5, align 8, !tbaa !7
  %36 = getelementptr inbounds nuw %struct.parser_st_table, ptr %35, i32 0, i32 2
  store i8 %34, ptr %36, align 2, !tbaa !27
  %37 = load i32, ptr %8, align 4, !tbaa !16
  %38 = icmp sle i32 %37, 4
  br i1 %38, label %39, label %42

39:                                               ; preds = %15
  %40 = load ptr, ptr %5, align 8, !tbaa !7
  %41 = getelementptr inbounds nuw %struct.parser_st_table, ptr %40, i32 0, i32 6
  store ptr null, ptr %41, align 8, !tbaa !28
  br label %55

42:                                               ; preds = %15
  %43 = load ptr, ptr %5, align 8, !tbaa !7
  %44 = call i64 @bins_size(ptr noundef %43)
  %45 = call noalias ptr @malloc(i64 noundef %44) #15
  %46 = load ptr, ptr %5, align 8, !tbaa !7
  %47 = getelementptr inbounds nuw %struct.parser_st_table, ptr %46, i32 0, i32 6
  store ptr %45, ptr %47, align 8, !tbaa !28
  %48 = load ptr, ptr %5, align 8, !tbaa !7
  %49 = getelementptr inbounds nuw %struct.parser_st_table, ptr %48, i32 0, i32 6
  %50 = load ptr, ptr %49, align 8, !tbaa !28
  %51 = icmp eq ptr %50, null
  br i1 %51, label %52, label %54

52:                                               ; preds = %42
  %53 = load ptr, ptr %5, align 8, !tbaa !7
  call void @free(ptr noundef %53) #14
  store ptr null, ptr %4, align 8
  store i32 1, ptr %9, align 4
  br label %73

54:                                               ; preds = %42
  br label %55

55:                                               ; preds = %54, %39
  %56 = load ptr, ptr %5, align 8, !tbaa !7
  %57 = call i64 @get_allocated_entries(ptr noundef %56)
  %58 = mul i64 %57, 24
  %59 = call noalias ptr @malloc(i64 noundef %58) #15
  %60 = load ptr, ptr %5, align 8, !tbaa !7
  %61 = getelementptr inbounds nuw %struct.parser_st_table, ptr %60, i32 0, i32 9
  store ptr %59, ptr %61, align 8, !tbaa !29
  %62 = load ptr, ptr %5, align 8, !tbaa !7
  %63 = getelementptr inbounds nuw %struct.parser_st_table, ptr %62, i32 0, i32 9
  %64 = load ptr, ptr %63, align 8, !tbaa !29
  %65 = icmp eq ptr %64, null
  br i1 %65, label %66, label %68

66:                                               ; preds = %55
  %67 = load ptr, ptr %5, align 8, !tbaa !7
  call void @rb_parser_st_free_table(ptr noundef %67)
  store ptr null, ptr %4, align 8
  store i32 1, ptr %9, align 4
  br label %73

68:                                               ; preds = %55
  %69 = load ptr, ptr %5, align 8, !tbaa !7
  call void @make_tab_empty(ptr noundef %69)
  %70 = load ptr, ptr %5, align 8, !tbaa !7
  %71 = getelementptr inbounds nuw %struct.parser_st_table, ptr %70, i32 0, i32 3
  store i32 0, ptr %71, align 4, !tbaa !30
  %72 = load ptr, ptr %5, align 8, !tbaa !7
  store ptr %72, ptr %4, align 8
  store i32 1, ptr %9, align 4
  br label %73

73:                                               ; preds = %68, %66, %52, %14
  call void @llvm.lifetime.end.p0(i64 4, ptr %8) #14
  %74 = load ptr, ptr %4, align 8
  ret ptr %74
}