; Function Attrs: nounwind sspstrong uwtable
define dso_local noundef ptr @rb_parser_st_init_existing_table_with_size(ptr noundef captures(ret: address, provenance) %0, ptr noundef %1, i64 noundef %2) local_unnamed_addr #0 {
  %4 = icmp ugt i64 %2, 4611686018427387903
  br i1 %4, label %46, label %5

5:                                                ; preds = %3
  %6 = tail call range(i64 0, 65) i64 @llvm.ctlz.i64(i64 %2, i1 false)
  %7 = trunc nuw nsw i64 %6 to i32
  %8 = sub nuw nsw i32 64, %7
  %9 = tail call i32 @llvm.umax.i32(i32 %8, i32 2)
  %10 = getelementptr inbounds nuw i8, ptr %0, i64 8
  store ptr %1, ptr %10, align 8, !tbaa !7
  %11 = trunc nuw nsw i32 %9 to i8
  store i8 %11, ptr %0, align 8, !tbaa !17
  %12 = zext nneg i32 %9 to i64
  %13 = getelementptr [63 x %struct.st_features], ptr @features, i64 0, i64 %12
  %14 = getelementptr inbounds nuw i8, ptr %13, i64 1
  %15 = load i8, ptr %14, align 1, !tbaa !18
  %16 = getelementptr inbounds nuw i8, ptr %0, i64 1
  store i8 %15, ptr %16, align 1, !tbaa !20
  %17 = getelementptr inbounds nuw i8, ptr %13, i64 2
  %18 = load i8, ptr %17, align 2, !tbaa !21
  %19 = getelementptr inbounds nuw i8, ptr %0, i64 2
  store i8 %18, ptr %19, align 2, !tbaa !22
  %20 = icmp samesign ult i64 %2, 16
  br i1 %20, label %21, label %23

21:                                               ; preds = %5
  %22 = getelementptr inbounds nuw i8, ptr %0, i64 24
  store ptr null, ptr %22, align 8, !tbaa !23
  br label %31

23:                                               ; preds = %5
  %24 = getelementptr [63 x %struct.st_features], ptr @features, i64 0, i64 %12, i32 3
  %25 = load i64, ptr %24, align 8, !tbaa !24
  %26 = shl i64 %25, 3
  %27 = tail call noalias ptr @malloc(i64 noundef %26) #24
  %28 = getelementptr inbounds nuw i8, ptr %0, i64 24
  store ptr %27, ptr %28, align 8, !tbaa !23
  %29 = icmp eq ptr %27, null
  br i1 %29, label %30, label %31

30:                                               ; preds = %23
  tail call void @free(ptr noundef nonnull %0) #25
  br label %46

31:                                               ; preds = %23, %21
  %32 = phi ptr [ %27, %23 ], [ null, %21 ]
  %33 = shl i64 24, %12
  %34 = tail call noalias ptr @malloc(i64 noundef %33) #24
  %35 = getelementptr inbounds nuw i8, ptr %0, i64 48
  store ptr %34, ptr %35, align 8, !tbaa !25
  %36 = icmp eq ptr %34, null
  br i1 %36, label %37, label %38

37:                                               ; preds = %31
  tail call void @free(ptr noundef %32) #25
  tail call void @free(ptr noundef nonnull %0) #25
  br label %46

38:                                               ; preds = %31
  %39 = getelementptr inbounds nuw i8, ptr %0, i64 16
  store i64 0, ptr %39, align 8, !tbaa !26
  %40 = getelementptr inbounds nuw i8, ptr %0, i64 32
  tail call void @llvm.memset.p0.i64(ptr noundef nonnull align 8 dereferenceable(16) %40, i8 0, i64 16, i1 false)
  %.not.i = icmp eq ptr %32, null
  br i1 %.not.i, label %make_tab_empty.exit, label %41

41:                                               ; preds = %38
  %42 = getelementptr [63 x %struct.st_features], ptr @features, i64 0, i64 %12, i32 3
  %43 = load i64, ptr %42, align 8, !tbaa !24
  %44 = shl i64 %43, 3
  tail call void @llvm.memset.p0.i64(ptr noundef nonnull align 1 %32, i8 noundef 0, i64 noundef %44, i1 noundef false) #25
  br label %make_tab_empty.exit

make_tab_empty.exit:                              ; preds = %38, %41
  %45 = getelementptr inbounds nuw i8, ptr %0, i64 4
  store i32 0, ptr %45, align 4, !tbaa !27
  br label %46

46:                                               ; preds = %3, %make_tab_empty.exit, %37, %30
  %.0 = phi ptr [ null, %37 ], [ %0, %make_tab_empty.exit ], [ null, %30 ], [ null, %3 ]
  ret ptr %.0
}